; Function Attrs: mustprogress nounwind uwtable
define void @_ZN3gmx19DeviceStreamManager4ImplD2Ev(ptr noundef nonnull align 8 dereferenceable(49) %0) unnamed_addr #5 align 2 personality ptr @__gxx_personality_v0 {
  br label %2

2:                                                ; preds = %1, %19
  %.0.idx18 = phi i64 [ 8, %1 ], [ %.0.add, %19 ]
  %.0.ptr = getelementptr inbounds i8, ptr %0, i64 %.0.idx18
  %3 = load ptr, ptr %.0.ptr, align 8
  %.not13 = icmp eq ptr %3, null
  br i1 %.not13, label %19, label %4

4:                                                ; preds = %2
  invoke void @_ZNK12DeviceStream11synchronizeEv(ptr noundef nonnull align 1 dereferenceable(1) %3)
          to label %19 unwind label %5

5:                                                ; preds = %4
  %6 = landingpad { ptr, i32 }
          catch ptr @_ZTISt9exception
          catch ptr null
  %7 = extractvalue { ptr, i32 } %6, 0
  %8 = extractvalue { ptr, i32 } %6, 1
  %9 = tail call i32 @llvm.eh.typeid.for(ptr nonnull @_ZTISt9exception) #15
  %10 = icmp eq i32 %8, %9
  br i1 %10, label %11, label %25

11:                                               ; preds = %5
  %12 = tail call ptr @__cxa_begin_catch(ptr %7) #15
  %13 = load ptr, ptr @stderr, align 8
  %14 = load ptr, ptr %12, align 8
  %15 = getelementptr inbounds i8, ptr %14, i64 16
  %16 = load ptr, ptr %15, align 8
  %17 = tail call noundef ptr %16(ptr noundef nonnull align 8 dereferenceable(8) %12) #15
  %18 = tail call i32 (ptr, ptr, ...) @fprintf(ptr noundef %13, ptr noundef nonnull @.str, ptr noundef %17) #18
  invoke void @__cxa_end_catch()
          to label %19 unwind label %22

19:                                               ; preds = %2, %11, %4
  %.0.add = add nuw nsw i64 %.0.idx18, 8
  %.not = icmp eq i64 %.0.add, 48
  br i1 %.not, label %.preheader, label %2

.preheader:                                       ; preds = %19, %_ZNSt10unique_ptrI12DeviceStreamSt14default_deleteIS0_EED2Ev.exit.i
  %.idx = phi i64 [ %.add, %_ZNSt10unique_ptrI12DeviceStreamSt14default_deleteIS0_EED2Ev.exit.i ], [ 48, %19 ]
  %.add = add nsw i64 %.idx, -8
  %.ptr15 = getelementptr inbounds i8, ptr %0, i64 %.add
  %20 = load ptr, ptr %.ptr15, align 8
  %.not.i.i = icmp eq ptr %20, null
  br i1 %.not.i.i, label %_ZNSt10unique_ptrI12DeviceStreamSt14default_deleteIS0_EED2Ev.exit.i, label %_ZNKSt14default_deleteI12DeviceStreamEclEPS0_.exit.i.i

_ZNKSt14default_deleteI12DeviceStreamEclEPS0_.exit.i.i: ; preds = %.preheader
  tail call void @_ZN12DeviceStreamD1Ev(ptr noundef nonnull align 1 dereferenceable(1) %20) #15
  tail call void @_ZdlPv(ptr noundef nonnull %20) #14
  br label %_ZNSt10unique_ptrI12DeviceStreamSt14default_deleteIS0_EED2Ev.exit.i

_ZNSt10unique_ptrI12DeviceStreamSt14default_deleteIS0_EED2Ev.exit.i: ; preds = %_ZNKSt14default_deleteI12DeviceStreamEclEPS0_.exit.i.i, %.preheader
  store ptr null, ptr %.ptr15, align 8
  %21 = icmp eq i64 %.add, 8
  br i1 %21, label %_ZN3gmx16EnumerationArrayINS_16DeviceStreamTypeESt10unique_ptrI12DeviceStreamSt14default_deleteIS3_EELS1_5EED2Ev.exit, label %.preheader

_ZN3gmx16EnumerationArrayINS_16DeviceStreamTypeESt10unique_ptrI12DeviceStreamSt14default_deleteIS3_EELS1_5EED2Ev.exit: ; preds = %_ZNSt10unique_ptrI12DeviceStreamSt14default_deleteIS0_EED2Ev.exit.i
  tail call void @_ZN13DeviceContextD1Ev(ptr noundef nonnull align 8 dereferenceable(8) %0) #15
  ret void

22:                                               ; preds = %11
  %23 = landingpad { ptr, i32 }
          catch ptr null
  %24 = extractvalue { ptr, i32 } %23, 0
  tail call void @__clang_call_terminate(ptr %24) #17
  unreachable

25:                                               ; preds = %5
  tail call void @__clang_call_terminate(ptr %7) #17
  unreachable
}